target datalayout = "e-m:e-p270:32:32-p271:32:32-p272:64:64-i64:64-i128:128-f80:128-n8:16:32:64-S128"
target triple = "x86_64-pc-linux-gnu"

%"class.boost::stacktrace::frame" = type { ptr }

; Function Attrs: mustprogress uwtable
define noundef i64 @_ZNK5boost10stacktrace5frame11source_lineEv(ptr noundef nonnull align 8 dereferenceable(8) %0) #6 align 2 {
  %2 = alloca ptr, align 8
  %3 = alloca i64, align 8
  store ptr %0, ptr %2, align 8, !tbaa !7
  %4 = load ptr, ptr %2, align 8
  call void @llvm.lifetime.start.p0(i64 8, ptr %3) #19
  %5 = getelementptr inbounds nuw %"class.boost::stacktrace::frame", ptr %4, i32 0, i32 0
  %6 = load ptr, ptr %5, align 8, !tbaa !15
  %7 = call noundef i64 @_ZN5boost10stacktrace6detail11source_lineEPKvb(ptr noundef %6, i1 noundef zeroext false)
  store i64 %7, ptr %3, align 8, !tbaa !9
  %8 = load i64, ptr %3, align 8, !tbaa !9
  %9 = icmp eq i64 %8, 0
  br i1 %9, label %10, label %14

10:                                               ; preds = %1
  %11 = getelementptr inbounds nuw %"class.boost::stacktrace::frame", ptr %4, i32 0, i32 0
  %12 = load ptr, ptr %11, align 8, !tbaa !15
  %13 = call noundef i64 @_ZN5boost10stacktrace6detail11source_lineEPKvb(ptr noundef %12, i1 noundef zeroext true)
  store i64 %13, ptr %3, align 8, !tbaa !9
  br label %14

14:                                               ; preds = %10, %1
  %15 = load i64, ptr %3, align 8, !tbaa !9
  call void @llvm.lifetime.end.p0(i64 8, ptr %3) #19
  ret i64 %15
}