; Function Attrs: mustprogress uwtable
define noundef i64 @_ZNK5boost10stacktrace5frame11source_lineEv(ptr nocapture noundef nonnull readonly align 8 dereferenceable(8) %0) local_unnamed_addr #8 align 2 {
  %2 = load ptr, ptr %0, align 8, !tbaa !12
  %3 = tail call noundef i64 @_ZN5boost10stacktrace6detail11source_lineEPKvb(ptr noundef %2, i1 noundef zeroext false)
  %4 = icmp eq i64 %3, 0
  br i1 %4, label %5, label %8

5:                                                ; preds = %1
  %6 = load ptr, ptr %0, align 8, !tbaa !12
  %7 = tail call noundef i64 @_ZN5boost10stacktrace6detail11source_lineEPKvb(ptr noundef %6, i1 noundef zeroext true)
  br label %8

8:                                                ; preds = %5, %1
  %.0 = phi i64 [ %7, %5 ], [ %3, %1 ]
  ret i64 %.0
}